; Function Attrs: mustprogress uwtable
define noundef ptr @_ZN8proxygen15HTTPSessionBase20getParseErrorHandlerEPNS_15HTTPTransactionERKNS_13HTTPExceptionE(ptr noundef nonnull align 8 dereferenceable(1582) %this, ptr noundef %txn, ptr noundef nonnull align 8 dereferenceable(96) %error) local_unnamed_addr #3 align 2 {
entry:
  %call_.i.i = getelementptr inbounds i8, ptr %this, i64 992
  %0 = load ptr, ptr %call_.i.i, align 8
  %vtable = load ptr, ptr %0, align 8
  %vfn = getelementptr inbounds i8, ptr %vtable, i64 40
  %1 = load ptr, ptr %vfn, align 8
  %call2 = tail call noundef zeroext i8 %1(ptr noundef nonnull align 8 dereferenceable(8) %0)
  %cmp = icmp eq i8 %call2, 1
  br i1 %cmp, label %return, label %if.end

if.end:                                           ; preds = %entry
  %controller_ = getelementptr inbounds i8, ptr %this, i64 1512
  %2 = load ptr, ptr %controller_, align 8
  %vtable3 = load ptr, ptr %this, align 8
  %vfn4 = getelementptr inbounds i8, ptr %vtable3, i64 328
  %3 = load ptr, ptr %vfn4, align 8
  %call5 = tail call noundef nonnull align 8 dereferenceable(27) ptr %3(ptr noundef nonnull align 8 dereferenceable(1582) %this) #21
  %vtable6 = load ptr, ptr %2, align 8
  %vfn7 = getelementptr inbounds i8, ptr %vtable6, i64 24
  %4 = load ptr, ptr %vfn7, align 8
  %call8 = tail call noundef ptr %4(ptr noundef nonnull align 8 dereferenceable(8) %2, ptr noundef %txn, ptr noundef nonnull align 8 dereferenceable(96) %error, ptr noundef nonnull align 8 dereferenceable(27) %call5)
  br label %return

return:                                           ; preds = %entry, %if.end
  %retval.0 = phi ptr [ %call8, %if.end ], [ null, %entry ]
  ret ptr %retval.0
}